Certificate:
    Data:
        Version: 3 (0x2)
        Serial Number:
            02:2e:44:55:b9:3c:6f:0a:c2:b4:0a:0a:55:43:23:1b
    Signature Algorithm: sha256WithRSAEncryption
        Issuer: C=CN, ST=ShaanXi, O=NickLi Ltd, OU=NickLi Ltd CA, CN=NickLi Root CA/emailAddress=ljfpower@163.com
        Validity
            Not Before: Jan 28 11:40:41 2021 GMT
            Not After : Jan 23 11:40:41 2041 GMT
        Subject: C=CN, ST=ShaanXi, O=NickLi Ltd, OU=NickLi Ltd CA, CN=NickLi Root CA/emailAddress=ljfpower@163.com
        Subject Public Key Info:
            Public Key Algorithm: rsaEncryption
                Public-Key: (4096 bit)
                Modulus:
                    00:aa:b4:92:36:ea:dd:f9:26:4e:94:8f:16:7b:ee:
                    e4:ec:6f:7a:89:19:bc:4d:b8:f6:16:07:dc:dd:62:
                    d3:bf:37:fe:34:ac:c7:3e:97:bb:5e:d0:2e:75:e2:
                    9c:62:34:9c:da:82:0f:40:89:2e:88:ef:d7:a1:8e:
                    99:56:0c:a7:46:94:f9:8d:26:22:d5:5d:16:f1:bb:
                    33:06:0d:d3:79:9a:83:ef:22:b5:40:c4:b7:50:b1:
                    13:96:8c:7e:f2:f0:4d:56:eb:6e:ad:d8:02:29:5a:
                    10:40:9e:c5:c1:8b:5f:01:2c:91:c9:8a:3a:85:2b:
                    c7:4e:3a:62:cf:04:ab:54:18:41:1e:03:25:18:da:
                    7d:99:82:8f:2b:02:a1:e8:b9:a9:41:1f:a4:90:c8:
                    33:63:be:8e:69:2a:e9:a6:c9:9f:37:e5:1b:f3:60:
                    32:44:85:ad:d3:8f:52:18:bf:69:09:32:94:61:47:
                    1a:c0:94:ba:23:34:c7:92:07:43:06:3b:a2:6a:27:
                    04:b9:95:e9:a5:18:3f:aa:50:7f:eb:3b:9c:e8:50:
                    c5:87:96:21:22:c0:82:8f:b1:bb:21:97:d1:fd:84:
                    43:63:34:13:ff:5f:41:68:9f:e1:9a:4b:f1:f0:34:
                    8b:55:47:be:4c:20:de:92:e5:db:63:45:37:6e:b5:
                    55:1a:39:cc:5a:05:9d:ef:05:90:c7:11:56:29:de:
                    87:74:c3:4d:44:46:34:54:6d:92:2c:18:43:38:b7:
                    76:24:45:8f:51:d4:56:fa:42:98:94:24:0d:e7:7f:
                    69:6f:92:f4:df:7a:e9:16:63:d7:2a:17:f0:67:cf:
                    60:52:07:0a:33:67:b1:0d:7a:4e:7c:33:86:bd:20:
                    ab:af:c8:5c:c1:2a:19:68:6e:ba:5c:68:3f:e0:09:
                    b8:14:bf:b4:2e:19:6d:c0:a7:13:c8:57:69:da:b3:
                    f7:85:86:c1:e9:75:71:b3:d2:7d:76:71:e0:1d:4a:
                    f5:a6:bf:e0:92:2b:85:6c:21:43:ee:82:6e:a1:5c:
                    67:2d:1d:b7:f9:86:b2:76:e6:a8:4f:ba:65:04:d5:
                    76:4e:10:86:a5:b9:2b:04:8b:3b:5f:1b:05:dd:87:
                    9d:0f:e6:51:47:2a:37:3b:5c:d8:34:61:3c:66:ac:
                    a7:de:47:08:d7:7f:c7:bc:7e:69:17:25:3e:80:d4:
                    94:fc:d8:cb:c0:8d:1d:49:a4:e5:20:f7:c3:2f:20:
                    dd:0d:6e:d5:1c:39:5e:ee:78:01:30:e5:d1:1a:17:
                    38:65:bb:f6:56:64:27:17:8a:88:58:2f:3f:ca:b6:
                    b0:93:c7:24:1c:c4:10:93:e0:8d:55:e0:50:e5:f1:
                    da:ee:91
                Exponent: 65537 (0x10001)
        X509v3 extensions:
            X509v3 Subject Key Identifier: 
                F2:9F:A4:43:74:88:E7:D8:BB:F5:E3:A6:DB:38:63:81:3C:F8:3F:BB
            X509v3 Authority Key Identifier: 
                keyid:F2:9F:A4:43:74:88:E7:D8:BB:F5:E3:A6:DB:38:63:81:3C:F8:3F:BB

            X509v3 Basic Constraints: critical
                CA:TRUE
            X509v3 Key Usage: critical
                Digital Signature, Certificate Sign, CRL Sign
    Signature Algorithm: sha256WithRSAEncryption
         4c:14:cd:38:c3:c7:08:f2:aa:ee:46:5e:b6:13:7d:02:5b:8b:
         c6:0b:5b:82:70:c5:a7:4d:26:be:87:a1:a6:46:52:96:0f:21:
         b6:67:fb:b7:0a:2d:bf:82:a1:f8:be:f9:8e:de:91:56:a3:78:
         87:65:38:45:e3:fc:e9:de:33:00:63:b5:80:da:8b:e1:ac:79:
         0e:8a:d5:2d:c8:e2:f6:b2:90:68:ae:84:6f:5e:3c:65:5f:f7:
         e3:44:5a:cc:bb:2e:78:63:3a:87:d0:35:09:54:65:2c:cb:6d:
         a7:ea:fb:e0:af:22:a5:38:8e:55:7a:4b:e3:79:11:8a:ef:44:
         02:79:48:39:d6:49:6d:74:e7:73:c4:fc:1f:4e:ce:67:26:ef:
         ad:7e:e6:bf:e4:23:9d:3c:50:94:ea:dc:9e:7b:5a:12:ae:c4:
         80:6e:e9:bf:44:ca:b5:7a:1b:da:f2:a6:de:1d:c6:85:4a:5e:
         f1:f8:04:d7:96:c9:a6:db:5c:08:93:1c:74:b6:0d:1a:a7:d1:
         9a:97:ec:74:a5:b2:52:4c:57:f7:e5:47:8a:0e:4f:e0:94:10:
         13:86:dd:50:1a:9d:4b:ce:fe:0f:9d:9b:e8:6e:6a:8d:d2:e0:
         dd:f3:f6:8a:45:18:f3:fe:19:ea:9b:ad:14:00:b4:08:4f:53:
         27:a0:31:b8:49:45:e6:6a:27:17:ec:33:50:ab:8e:5d:6f:5c:
         41:c5:4b:00:2c:fc:ed:44:fe:5e:7e:7b:e3:0b:81:5b:74:9e:
         d5:3f:a3:25:0b:60:f2:92:ea:21:38:dc:66:a7:37:20:8a:d8:
         f1:85:02:2b:75:99:a2:7c:59:61:c0:66:1e:f4:47:63:e3:19:
         10:dc:fa:6f:3d:a9:1c:bc:61:36:23:db:cc:b7:2a:cb:5f:8f:
         fa:2f:e0:e3:71:09:d8:32:f8:72:02:63:d3:6e:dd:b9:4d:57:
         c9:01:8e:95:8a:08:01:f6:9c:52:50:61:cd:03:4b:4c:f3:8b:
         75:ef:b4:d5:b1:5d:9e:99:db:6b:82:99:fd:ba:a8:f9:31:ad:
         1e:ba:9b:ec:6f:cd:6a:2c:f4:fd:11:43:2c:63:27:70:a9:57:
         11:34:43:80:11:9b:4b:6a:6e:76:a0:5b:0e:d9:f6:92:78:60:
         06:be:9d:e3:42:ce:f0:b8:35:0b:f7:dd:b4:1a:8a:af:54:10:
         70:ca:71:57:84:78:29:51:73:8e:f0:93:db:bc:6c:69:c0:e1:
         c1:04:1c:81:eb:18:48:eb:51:4d:a2:6d:4b:4b:71:8c:24:08:
         55:6e:a8:2a:97:fe:cd:f0:04:25:8b:e7:bd:a3:04:a2:ad:e2:
         5d:87:3e:b2:2b:ef:86:bb
-----BEGIN CERTIFICATE-----
MIIF+zCCA+OgAwIBAgIQAi5EVbk8bwrCtAoKVUMjGzANBgkqhkiG9w0BAQsFADCB
hjELMAkGA1UEBhMCQ04xEDAOBgNVBAgMB1NoYWFuWGkxEzARBgNVBAoMCk5pY2tM
aSBMdGQxFjAUBgNVBAsMDU5pY2tMaSBMdGQgQ0ExFzAVBgNVBAMMDk5pY2tMaSBS
b290IENBMR8wHQYJKoZIhvcNAQkBFhBsamZwb3dlckAxNjMuY29tMB4XDTIxMDEy
ODExNDA0MVoXDTQxMDEyMzExNDA0MVowgYYxCzAJBgNVBAYTAkNOMRAwDgYDVQQI
DAdTaGFhblhpMRMwEQYDVQQKDApOaWNrTGkgTHRkMRYwFAYDVQQLDA1OaWNrTGkg
THRkIENBMRcwFQYDVQQDDA5OaWNrTGkgUm9vdCBDQTEfMB0GCSqGSIb3DQEJARYQ
bGpmcG93ZXJAMTYzLmNvbTCCAiIwDQYJKoZIhvcNAQEBBQADggIPADCCAgoCggIB
AKq0kjbq3fkmTpSPFnvu5OxveokZvE249hYH3N1i0783/jSsxz6Xu17QLnXinGI0
nNqCD0CJLojv16GOmVYMp0aU+Y0mItVdFvG7MwYN03mag+8itUDEt1CxE5aMfvLw
TVbrbq3YAilaEECexcGLXwEskcmKOoUrx046Ys8Eq1QYQR4DJRjafZmCjysCoei5
qUEfpJDIM2O+jmkq6abJnzflG/NgMkSFrdOPUhi/aQkylGFHGsCUuiM0x5IHQwY7
omonBLmV6aUYP6pQf+s7nOhQxYeWISLAgo+xuyGX0f2EQ2M0E/9fQWif4ZpL8fA0
i1VHvkwg3pLl22NFN261VRo5zFoFne8FkMcRVineh3TDTURGNFRtkiwYQzi3diRF
j1HUVvpCmJQkDed/aW+S9N966RZj1yoX8GfPYFIHCjNnsQ16Tnwzhr0gq6/IXMEq
GWhuulxoP+AJuBS/tC4ZbcCnE8hXadqz94WGwel1cbPSfXZx4B1K9aa/4JIrhWwh
Q+6CbqFcZy0dt/mGsnbmqE+6ZQTVdk4QhqW5KwSLO18bBd2HnQ/mUUcqNztc2DRh
PGasp95HCNd/x7x+aRclPoDUlPzYy8CNHUmk5SD3wy8g3Q1u1Rw5Xu54ATDl0RoX
OGW79lZkJxeKiFgvP8q2sJPHJBzEEJPgjVXgUOXx2u6RAgMBAAGjYzBhMB0GA1Ud
DgQWBBTyn6RDdIjn2Lv146bbOGOBPPg/uzAfBgNVHSMEGDAWgBTyn6RDdIjn2Lv1
46bbOGOBPPg/uzAPBgNVHRMBAf8EBTADAQH/MA4GA1UdDwEB/wQEAwIBhjANBgkq
hkiG9w0BAQsFAAOCAgEATBTNOMPHCPKq7kZethN9AluLxgtbgnDFp00mvoehpkZS
lg8htmf7twotv4Kh+L75jt6RVqN4h2U4ReP86d4zAGO1gNqL4ax5DorVLcji9rKQ
aK6Eb148ZV/340RazLsueGM6h9A1CVRlLMttp+r74K8ipTiOVXpL43kRiu9EAnlI
OdZJbXTnc8T8H07OZybvrX7mv+QjnTxQlOrcnntaEq7EgG7pv0TKtXob2vKm3h3G
hUpe8fgE15bJpttcCJMcdLYNGqfRmpfsdKWyUkxX9+VHig5P4JQQE4bdUBqdS87+
D52b6G5qjdLg3fP2ikUY8/4Z6putFAC0CE9TJ6AxuElF5monF+wzUKuOXW9cQcVL
ACz87UT+Xn574wuBW3Se1T+jJQtg8pLqITjcZqc3IIrY8YUCK3WZonxZYcBmHvRH
Y+MZENz6bz2pHLxhNiPbzLcqy1+P+i/g43EJ2DL4cgJj027duU1XyQGOlYoIAfac
UlBhzQNLTPOLde+01bFdnpnba4KZ/bqo+TGtHrqb7G/Naiz0/RFDLGMncKlXETRD
gBGbS2pudqBbDtn2knhgBr6d40LO8Lg1C/fdtBqKr1QQcMpxV4R4KVFzjvCT27xs
acDhwQQcgesYSOtRTaJtS0txjCQIVW6oKpf+zfAEJYvnvaMEoq3iXYc+sivvhrs=
-----END CERTIFICATE-----
